; Function Attrs: nounwind uwtable
define noundef ptr @Amap_ManCreatePo(ptr noundef captures(none) %0, ptr noundef %1) local_unnamed_addr #0 {
  %3 = tail call ptr @Amap_ManSetupObj(ptr noundef %0)
  %4 = getelementptr inbounds nuw i8, ptr %0, i64 40
  %5 = load ptr, ptr %4, align 8, !tbaa !28
  %6 = getelementptr i8, ptr %5, i64 4
  %.val = load i32, ptr %6, align 4, !tbaa !22
  %7 = load i64, ptr %3, align 8
  %8 = and i32 %.val, 536870911
  %9 = zext nneg i32 %8 to i64
  %10 = shl nuw nsw i64 %9, 32
  %11 = and i64 %7, -2305843004918726657
  %12 = or disjoint i64 %10, %11
  store i64 %12, ptr %3, align 8
  %13 = load ptr, ptr %4, align 8, !tbaa !28
  %14 = getelementptr inbounds nuw i8, ptr %13, i64 4
  %15 = load i32, ptr %14, align 4, !tbaa !22
  %16 = load i32, ptr %13, align 8, !tbaa !24
  %17 = icmp eq i32 %15, %16
  br i1 %17, label %18, label %.Vec_PtrGrow.exit11_crit_edge.i

.Vec_PtrGrow.exit11_crit_edge.i:                  ; preds = %2
  %.phi.trans.insert.i = getelementptr inbounds nuw i8, ptr %13, i64 8
  %.pre.i = load ptr, ptr %.phi.trans.insert.i, align 8, !tbaa !25
  br label %Vec_PtrPush.exit

18:                                               ; preds = %2
  %19 = icmp slt i32 %15, 16
  br i1 %19, label %20, label %28

20:                                               ; preds = %18
  %21 = getelementptr inbounds nuw i8, ptr %13, i64 8
  %22 = load ptr, ptr %21, align 8, !tbaa !25
  %.not9.i.i = icmp eq ptr %22, null
  br i1 %.not9.i.i, label %25, label %23

23:                                               ; preds = %20
  %24 = tail call dereferenceable_or_null(128) ptr @realloc(ptr noundef nonnull %22, i64 noundef 128) #12
  br label %Vec_PtrGrow.exit.i

25:                                               ; preds = %20
  %26 = tail call noalias dereferenceable_or_null(128) ptr @malloc(i64 noundef 128) #13
  br label %Vec_PtrGrow.exit.i

Vec_PtrGrow.exit.i:                               ; preds = %25, %23
  %27 = phi ptr [ %24, %23 ], [ %26, %25 ]
  store ptr %27, ptr %21, align 8, !tbaa !25
  store i32 16, ptr %13, align 8, !tbaa !24
  br label %Vec_PtrPush.exit

28:                                               ; preds = %18
  %29 = shl nuw nsw i32 %15, 1
  %30 = getelementptr inbounds nuw i8, ptr %13, i64 8
  %31 = load ptr, ptr %30, align 8, !tbaa !25
  %.not9.i10.i = icmp eq ptr %31, null
  %32 = zext nneg i32 %29 to i64
  %33 = shl nuw nsw i64 %32, 3
  br i1 %.not9.i10.i, label %36, label %34

34:                                               ; preds = %28
  %35 = tail call ptr @realloc(ptr noundef nonnull %31, i64 noundef %33) #12
  br label %38

36:                                               ; preds = %28
  %37 = tail call noalias ptr @malloc(i64 noundef %33) #13
  br label %38

38:                                               ; preds = %36, %34
  %39 = phi ptr [ %35, %34 ], [ %37, %36 ]
  store ptr %39, ptr %30, align 8, !tbaa !25
  store i32 %29, ptr %13, align 8, !tbaa !24
  br label %Vec_PtrPush.exit

Vec_PtrPush.exit:                                 ; preds = %.Vec_PtrGrow.exit11_crit_edge.i, %Vec_PtrGrow.exit.i, %38
  %40 = phi ptr [ %.pre.i, %.Vec_PtrGrow.exit11_crit_edge.i ], [ %39, %38 ], [ %27, %Vec_PtrGrow.exit.i ]
  %41 = load i32, ptr %14, align 4, !tbaa !22
  %42 = add nsw i32 %41, 1
  store i32 %42, ptr %14, align 4, !tbaa !22
  %43 = sext i32 %41 to i64
  %44 = getelementptr inbounds ptr, ptr %40, i64 %43
  store ptr %3, ptr %44, align 8, !tbaa !26
  %45 = load i64, ptr %3, align 8
  %46 = and i64 %45, -8
  %47 = or disjoint i64 %46, 3
  store i64 %47, ptr %3, align 8
  %48 = ptrtoint ptr %1 to i64
  %49 = and i64 %48, -2
  %50 = inttoptr i64 %49 to ptr
  %51 = load i64, ptr %50, align 8
  %52 = trunc i64 %51 to i32
  %53 = trunc i64 %48 to i32
  %54 = and i32 %53, 1
  %55 = lshr i32 %52, 2
  %56 = and i32 %55, 1073741822
  %57 = or disjoint i32 %56, %54
  %58 = getelementptr inbounds nuw i8, ptr %3, i64 24
  store i32 %57, ptr %58, align 8, !tbaa !20
  %59 = getelementptr inbounds nuw i8, ptr %50, i64 16
  %60 = load i32, ptr %59, align 8, !tbaa !29
  %61 = add nsw i32 %60, 1
  store i32 %61, ptr %59, align 8, !tbaa !29
  %62 = getelementptr inbounds nuw i8, ptr %50, i64 8
  %63 = load i32, ptr %62, align 8, !tbaa !33
  %64 = getelementptr inbounds nuw i8, ptr %3, i64 8
  store i32 %63, ptr %64, align 8, !tbaa !33
  %65 = getelementptr inbounds nuw i8, ptr %0, i64 124
  %66 = load i32, ptr %65, align 4, !tbaa !34
  %67 = icmp slt i32 %66, %63
  br i1 %67, label %68, label %69

68:                                               ; preds = %Vec_PtrPush.exit
  store i32 %63, ptr %65, align 4, !tbaa !34
  br label %69

69:                                               ; preds = %68, %Vec_PtrPush.exit
  %70 = getelementptr inbounds nuw i8, ptr %0, i64 108
  %71 = load i32, ptr %70, align 4, !tbaa !20
  %72 = add nsw i32 %71, 1
  store i32 %72, ptr %70, align 4, !tbaa !20
  ret ptr %3
}